target datalayout = "e-m:e-p270:32:32-p271:32:32-p272:64:64-i64:64-i128:128-f80:128-n8:16:32:64-S128"
target triple = "x86_64-pc-linux-gnu"

%struct.KDF_SSKDF = type { ptr, ptr, %struct.PROV_DIGEST, ptr, i64, ptr, i64, ptr, i64, i64, i32 }
%struct.PROV_DIGEST = type { ptr, ptr, ptr }

@.str = private unnamed_addr constant [50 x i8] c"../openssl/providers/implementations/kdfs/sskdf.c\00", align 1

; Function Attrs: nounwind uwtable
define internal ptr @sskdf_new(ptr noundef %0) #0 {
  %2 = alloca ptr, align 8
  %3 = alloca ptr, align 8
  %4 = alloca ptr, align 8
  %5 = alloca i32, align 4
  store ptr %0, ptr %3, align 8, !tbaa !3
  call void @llvm.lifetime.start.p0(i64 8, ptr %4) #6
  %6 = call i32 @ossl_prov_is_running()
  %7 = icmp ne i32 %6, 0
  br i1 %7, label %9, label %8

8:                                                ; preds = %1
  store ptr null, ptr %2, align 8
  store i32 1, ptr %5, align 4
  br label %18

9:                                                ; preds = %1
  %10 = call noalias ptr @CRYPTO_zalloc(i64 noundef 104, ptr noundef @.str, i32 noundef 316)
  store ptr %10, ptr %4, align 8, !tbaa !3
  %11 = icmp ne ptr %10, null
  br i1 %11, label %12, label %16

12:                                               ; preds = %9
  %13 = load ptr, ptr %3, align 8, !tbaa !3
  %14 = load ptr, ptr %4, align 8, !tbaa !3
  %15 = getelementptr inbounds nuw %struct.KDF_SSKDF, ptr %14, i32 0, i32 0
  store ptr %13, ptr %15, align 8, !tbaa !7
  br label %16

16:                                               ; preds = %12, %9
  %17 = load ptr, ptr %4, align 8, !tbaa !3
  store ptr %17, ptr %2, align 8
  store i32 1, ptr %5, align 4
  br label %18

18:                                               ; preds = %16, %8
  call void @llvm.lifetime.end.p0(i64 8, ptr %4) #6
  %19 = load ptr, ptr %2, align 8
  ret ptr %19
}